; Function Attrs: mustprogress uwtable
define hidden noalias noundef ptr @_Z24mk_tactic2solver_factoryP6tactic(ptr noundef %0) local_unnamed_addr #3 personality ptr @__gxx_personality_v0 {
  %2 = tail call noalias noundef ptr @_ZN6memory8allocateEm(i64 noundef 16)
  store ptr getelementptr inbounds nuw inrange(-16, 24) (i8, ptr @_ZTVN12_GLOBAL__N_121tactic2solver_factoryE, i64 16), ptr %2, align 8, !tbaa !3
  %3 = getelementptr inbounds nuw i8, ptr %2, i64 8
  store ptr %0, ptr %3, align 8, !tbaa !52
  %.not.i.i.i = icmp eq ptr %0, null
  br i1 %.not.i.i.i, label %_ZN12_GLOBAL__N_121tactic2solver_factoryC2EP6tactic.exit, label %4

4:                                                ; preds = %1
  %5 = getelementptr inbounds nuw i8, ptr %0, i64 8
  %6 = load i32, ptr %5, align 8, !tbaa !50
  %7 = add i32 %6, 1
  store i32 %7, ptr %5, align 8, !tbaa !50
  br label %_ZN12_GLOBAL__N_121tactic2solver_factoryC2EP6tactic.exit

_ZN12_GLOBAL__N_121tactic2solver_factoryC2EP6tactic.exit: ; preds = %1, %4
  ret ptr %2
}